target datalayout = "e-m:e-p270:32:32-p271:32:32-p272:64:64-i64:64-i128:128-f80:128-n8:16:32:64-S128"
target triple = "x86_64-pc-linux-gnu"

@.str.1 = private unnamed_addr constant [5 x i8] c"PATH\00", align 1
@.str.2 = private unnamed_addr constant [2 x i8] c".\00", align 1

; Function Attrs: nounwind uwtable
define internal void @path_env_load(ptr noundef %0, ptr noundef %1, ptr noundef %2) #0 {
  %4 = alloca ptr, align 8
  %5 = alloca ptr, align 8
  %6 = alloca ptr, align 8
  %7 = alloca ptr, align 8
  %8 = alloca i8, align 1
  %9 = alloca i32, align 4
  store ptr %0, ptr %4, align 8, !tbaa !3
  store ptr %1, ptr %5, align 8, !tbaa !23
  store ptr %2, ptr %6, align 8, !tbaa !25
  call void @llvm.lifetime.start.p0(i64 8, ptr %7) #8
  call void @llvm.lifetime.start.p0(i64 1, ptr %8) #8
  %10 = load ptr, ptr %4, align 8, !tbaa !3
  %11 = icmp eq ptr null, %10
  br i1 %11, label %12, label %14

12:                                               ; preds = %3
  %13 = load ptr, ptr %5, align 8, !tbaa !23
  store i32 0, ptr %13, align 4, !tbaa !11
  store i32 1, ptr %9, align 4
  br label %62

14:                                               ; preds = %3
  br label %15

15:                                               ; preds = %60, %14
  %16 = load ptr, ptr %4, align 8, !tbaa !3
  %17 = load i8, ptr %16, align 1, !tbaa !8
  %18 = sext i8 %17 to i32
  %19 = icmp ne i32 0, %18
  br i1 %19, label %20, label %61

20:                                               ; preds = %15
  %21 = load ptr, ptr %4, align 8, !tbaa !3
  store ptr %21, ptr %7, align 8, !tbaa !3
  br label %22

22:                                               ; preds = %35, %20
  %23 = load ptr, ptr %7, align 8, !tbaa !3
  %24 = load i8, ptr %23, align 1, !tbaa !8
  %25 = sext i8 %24 to i32
  %26 = icmp ne i32 %25, 0
  br i1 %26, label %27, label %32

27:                                               ; preds = %22
  %28 = load ptr, ptr %7, align 8, !tbaa !3
  %29 = load i8, ptr %28, align 1, !tbaa !8
  %30 = sext i8 %29 to i32
  %31 = icmp ne i32 %30, 58
  br label %32

32:                                               ; preds = %27, %22
  %33 = phi i1 [ false, %22 ], [ %31, %27 ]
  br i1 %33, label %34, label %38

34:                                               ; preds = %32
  br label %35

35:                                               ; preds = %34
  %36 = load ptr, ptr %7, align 8, !tbaa !3
  %37 = getelementptr inbounds nuw i8, ptr %36, i32 1
  store ptr %37, ptr %7, align 8, !tbaa !3
  br label %22, !llvm.loop !27

38:                                               ; preds = %32
  %39 = load ptr, ptr %7, align 8, !tbaa !3
  %40 = load ptr, ptr %4, align 8, !tbaa !3
  %41 = icmp ne ptr %39, %40
  br i1 %41, label %42, label %53

42:                                               ; preds = %38
  %43 = load ptr, ptr %7, align 8, !tbaa !3
  %44 = load i8, ptr %43, align 1, !tbaa !8
  store i8 %44, ptr %8, align 1, !tbaa !8
  %45 = load ptr, ptr %7, align 8, !tbaa !3
  store i8 0, ptr %45, align 1, !tbaa !8
  %46 = load ptr, ptr %5, align 8, !tbaa !23
  %47 = load ptr, ptr %6, align 8, !tbaa !25
  %48 = load ptr, ptr %4, align 8, !tbaa !3
  %49 = call i32 @pmix_argv_append(ptr noundef %46, ptr noundef %47, ptr noundef %48)
  %50 = load i8, ptr %8, align 1, !tbaa !8
  %51 = load ptr, ptr %7, align 8, !tbaa !3
  store i8 %50, ptr %51, align 1, !tbaa !8
  %52 = load ptr, ptr %7, align 8, !tbaa !3
  store ptr %52, ptr %4, align 8, !tbaa !3
  br label %53

53:                                               ; preds = %42, %38
  %54 = load ptr, ptr %4, align 8, !tbaa !3
  %55 = load i8, ptr %54, align 1, !tbaa !8
  %56 = icmp ne i8 %55, 0
  br i1 %56, label %57, label %60

57:                                               ; preds = %53
  %58 = load ptr, ptr %4, align 8, !tbaa !3
  %59 = getelementptr inbounds nuw i8, ptr %58, i32 1
  store ptr %59, ptr %4, align 8, !tbaa !3
  br label %60

60:                                               ; preds = %57, %53
  br label %15, !llvm.loop !28

61:                                               ; preds = %15
  store i32 0, ptr %9, align 4
  br label %62

62:                                               ; preds = %61, %12
  call void @llvm.lifetime.end.p0(i64 1, ptr %8) #8
  call void @llvm.lifetime.end.p0(i64 8, ptr %7) #8
  %63 = load i32, ptr %9, align 4
  switch i32 %63, label %65 [
    i32 0, label %64
    i32 1, label %64
  ]

64:                                               ; preds = %62, %62
  ret void

65:                                               ; preds = %62
  unreachable
}

; Function Attrs: nounwind uwtable
define internal ptr @list_env_get(ptr noundef %0, ptr noundef %1) #0 {
  %3 = alloca ptr, align 8
  %4 = alloca ptr, align 8
  %5 = alloca ptr, align 8
  %6 = alloca i64, align 8
  %7 = alloca i32, align 4
  store ptr %0, ptr %4, align 8, !tbaa !3
  store ptr %1, ptr %5, align 8, !tbaa !9
  call void @llvm.lifetime.start.p0(i64 8, ptr %6) #8
  %8 = load ptr, ptr %5, align 8, !tbaa !9
  %9 = icmp ne ptr null, %8
  br i1 %9, label %10, label %42

10:                                               ; preds = %2
  %11 = load ptr, ptr %4, align 8, !tbaa !3
  %12 = call i64 @strlen(ptr noundef %11) #9
  store i64 %12, ptr %6, align 8, !tbaa !15
  br label %13

13:                                               ; preds = %38, %10
  %14 = load ptr, ptr %5, align 8, !tbaa !9
  %15 = load ptr, ptr %14, align 8, !tbaa !3
  %16 = icmp ne ptr null, %15
  br i1 %16, label %17, label %41

17:                                               ; preds = %13
  %18 = load ptr, ptr %4, align 8, !tbaa !3
  %19 = load ptr, ptr %5, align 8, !tbaa !9
  %20 = load ptr, ptr %19, align 8, !tbaa !3
  %21 = load i64, ptr %6, align 8, !tbaa !15
  %22 = call i32 @strncmp(ptr noundef %18, ptr noundef %20, i64 noundef %21) #9
  %23 = icmp eq i32 0, %22
  br i1 %23, label %24, label %38

24:                                               ; preds = %17
  %25 = load ptr, ptr %5, align 8, !tbaa !9
  %26 = load ptr, ptr %25, align 8, !tbaa !3
  %27 = load i64, ptr %6, align 8, !tbaa !15
  %28 = getelementptr inbounds nuw i8, ptr %26, i64 %27
  %29 = load i8, ptr %28, align 1, !tbaa !8
  %30 = sext i8 %29 to i32
  %31 = icmp eq i32 61, %30
  br i1 %31, label %32, label %38

32:                                               ; preds = %24
  %33 = load ptr, ptr %5, align 8, !tbaa !9
  %34 = load ptr, ptr %33, align 8, !tbaa !3
  %35 = load i64, ptr %6, align 8, !tbaa !15
  %36 = getelementptr inbounds nuw i8, ptr %34, i64 %35
  %37 = getelementptr inbounds i8, ptr %36, i64 1
  store ptr %37, ptr %3, align 8
  store i32 1, ptr %7, align 4
  br label %45

38:                                               ; preds = %24, %17
  %39 = load ptr, ptr %5, align 8, !tbaa !9
  %40 = getelementptr inbounds nuw ptr, ptr %39, i32 1
  store ptr %40, ptr %5, align 8, !tbaa !9
  br label %13, !llvm.loop !17

41:                                               ; preds = %13
  br label %42

42:                                               ; preds = %41, %2
  %43 = load ptr, ptr %4, align 8, !tbaa !3
  %44 = call ptr @getenv(ptr noundef %43) #8
  store ptr %44, ptr %3, align 8
  store i32 1, ptr %7, align 4
  br label %45

45:                                               ; preds = %42, %32
  call void @llvm.lifetime.end.p0(i64 8, ptr %6) #8
  %46 = load ptr, ptr %3, align 8
  ret ptr %46
}

; Function Attrs: nounwind uwtable
define noalias ptr @pmix_path_findv(ptr noundef %0, i32 noundef %1, ptr noundef %2, ptr noundef %3) #0 {
  %5 = alloca ptr, align 8
  %6 = alloca ptr, align 8
  %7 = alloca i32, align 4
  %8 = alloca ptr, align 8
  %9 = alloca ptr, align 8
  %10 = alloca ptr, align 8
  %11 = alloca ptr, align 8
  %12 = alloca ptr, align 8
  %13 = alloca i32, align 4
  %14 = alloca i32, align 4
  %15 = alloca i8, align 1
  %16 = alloca i32, align 4
  store ptr %0, ptr %6, align 8, !tbaa !3
  store i32 %1, ptr %7, align 4, !tbaa !11
  store ptr %2, ptr %8, align 8, !tbaa !9
  store ptr %3, ptr %9, align 8, !tbaa !3
  call void @llvm.lifetime.start.p0(i64 8, ptr %10) #8
  call void @llvm.lifetime.start.p0(i64 8, ptr %11) #8
  call void @llvm.lifetime.start.p0(i64 8, ptr %12) #8
  call void @llvm.lifetime.start.p0(i64 4, ptr %13) #8
  call void @llvm.lifetime.start.p0(i64 4, ptr %14) #8
  call void @llvm.lifetime.start.p0(i64 1, ptr %15) #8
  store i8 0, ptr %15, align 1, !tbaa !18
  store i32 0, ptr %13, align 4, !tbaa !11
  store ptr null, ptr %10, align 8, !tbaa !9
  %17 = load ptr, ptr %8, align 8, !tbaa !9
  %18 = call ptr @list_env_get(ptr noundef @.str.1, ptr noundef %17)
  store ptr %18, ptr %12, align 8, !tbaa !3
  %19 = icmp ne ptr null, %18
  br i1 %19, label %20, label %22

20:                                               ; preds = %4
  %21 = load ptr, ptr %12, align 8, !tbaa !3
  call void @path_env_load(ptr noundef %21, ptr noundef %13, ptr noundef %10)
  br label %22

22:                                               ; preds = %20, %4
  %23 = load ptr, ptr %9, align 8, !tbaa !3
  %24 = icmp ne ptr null, %23
  br i1 %24, label %25, label %63

25:                                               ; preds = %22
  store i32 0, ptr %14, align 4, !tbaa !11
  br label %26

26:                                               ; preds = %59, %25
  %27 = load i32, ptr %14, align 4, !tbaa !11
  %28 = load i32, ptr %13, align 4, !tbaa !11
  %29 = icmp slt i32 %27, %28
  br i1 %29, label %30, label %62

30:                                               ; preds = %26
  %31 = load ptr, ptr %10, align 8, !tbaa !9
  %32 = load i32, ptr %14, align 4, !tbaa !11
  %33 = sext i32 %32 to i64
  %34 = getelementptr inbounds ptr, ptr %31, i64 %33
  %35 = load ptr, ptr %34, align 8, !tbaa !3
  %36 = call i32 @strcmp(ptr noundef %35, ptr noundef @.str.2) #9
  %37 = icmp eq i32 0, %36
  br i1 %37, label %38, label %58

38:                                               ; preds = %30
  store i8 1, ptr %15, align 1, !tbaa !18
  %39 = load ptr, ptr %10, align 8, !tbaa !9
  %40 = load i32, ptr %14, align 4, !tbaa !11
  %41 = sext i32 %40 to i64
  %42 = getelementptr inbounds ptr, ptr %39, i64 %41
  %43 = load ptr, ptr %42, align 8, !tbaa !3
  call void @free(ptr noundef %43) #8
  %44 = load ptr, ptr %9, align 8, !tbaa !3
  %45 = call noalias ptr @strdup(ptr noundef %44) #8
  %46 = load ptr, ptr %10, align 8, !tbaa !9
  %47 = load i32, ptr %14, align 4, !tbaa !11
  %48 = sext i32 %47 to i64
  %49 = getelementptr inbounds ptr, ptr %46, i64 %48
  store ptr %45, ptr %49, align 8, !tbaa !3
  %50 = load ptr, ptr %10, align 8, !tbaa !9
  %51 = load i32, ptr %14, align 4, !tbaa !11
  %52 = sext i32 %51 to i64
  %53 = getelementptr inbounds ptr, ptr %50, i64 %52
  %54 = load ptr, ptr %53, align 8, !tbaa !3
  %55 = icmp eq ptr null, %54
  br i1 %55, label %56, label %57

56:                                               ; preds = %38
  store ptr null, ptr %5, align 8
  store i32 1, ptr %16, align 4
  br label %84

57:                                               ; preds = %38
  br label %58

58:                                               ; preds = %57, %30
  br label %59

59:                                               ; preds = %58
  %60 = load i32, ptr %14, align 4, !tbaa !11
  %61 = add nsw i32 %60, 1
  store i32 %61, ptr %14, align 4, !tbaa !11
  br label %26, !llvm.loop !20

62:                                               ; preds = %26
  br label %63

63:                                               ; preds = %62, %22
  %64 = load i8, ptr %15, align 1, !tbaa !18, !range !21, !noundef !22
  %65 = trunc i8 %64 to i1
  br i1 %65, label %72, label %66

66:                                               ; preds = %63
  %67 = load ptr, ptr %9, align 8, !tbaa !3
  %68 = icmp ne ptr null, %67
  br i1 %68, label %69, label %72

69:                                               ; preds = %66
  %70 = load ptr, ptr %9, align 8, !tbaa !3
  %71 = call i32 @pmix_argv_append(ptr noundef %13, ptr noundef %10, ptr noundef %70)
  br label %72

72:                                               ; preds = %69, %66, %63
  %73 = load ptr, ptr %10, align 8, !tbaa !9
  %74 = icmp eq ptr null, %73
  br i1 %74, label %75, label %76

75:                                               ; preds = %72
  store ptr null, ptr %5, align 8
  store i32 1, ptr %16, align 4
  br label %84

76:                                               ; preds = %72
  %77 = load ptr, ptr %6, align 8, !tbaa !3
  %78 = load ptr, ptr %10, align 8, !tbaa !9
  %79 = load i32, ptr %7, align 4, !tbaa !11
  %80 = load ptr, ptr %8, align 8, !tbaa !9
  %81 = call noalias ptr @pmix_path_find(ptr noundef %77, ptr noundef %78, i32 noundef %79, ptr noundef %80)
  store ptr %81, ptr %11, align 8, !tbaa !3
  %82 = load ptr, ptr %10, align 8, !tbaa !9
  call void @PMIx_Argv_free(ptr noundef %82)
  %83 = load ptr, ptr %11, align 8, !tbaa !3
  store ptr %83, ptr %5, align 8
  store i32 1, ptr %16, align 4
  br label %84

84:                                               ; preds = %76, %75, %56
  call void @llvm.lifetime.end.p0(i64 1, ptr %15) #8
  call void @llvm.lifetime.end.p0(i64 4, ptr %14) #8
  call void @llvm.lifetime.end.p0(i64 4, ptr %13) #8
  call void @llvm.lifetime.end.p0(i64 8, ptr %12) #8
  call void @llvm.lifetime.end.p0(i64 8, ptr %11) #8
  call void @llvm.lifetime.end.p0(i64 8, ptr %10) #8
  %85 = load ptr, ptr %5, align 8
  ret ptr %85
}