; Function Attrs: nounwind uwtable
define noalias ptr @pmix_path_findv(ptr noundef %0, i32 noundef %1, ptr noundef captures(address_is_null) %2, ptr noundef %3) local_unnamed_addr #1 {
  %5 = alloca ptr, align 8
  %6 = alloca i32, align 4
  call void @llvm.lifetime.start.p0(i64 8, ptr nonnull %5) #14
  call void @llvm.lifetime.start.p0(i64 4, ptr nonnull %6) #14
  store i32 0, ptr %6, align 4, !tbaa !12
  store ptr null, ptr %5, align 8, !tbaa !14
  %.not.i = icmp eq ptr %2, null
  br i1 %.not.i, label %list_env_get.exit, label %7

7:                                                ; preds = %4
  %8 = load ptr, ptr %2, align 8, !tbaa !6
  %.not1517.i = icmp eq ptr %8, null
  br i1 %.not1517.i, label %list_env_get.exit, label %.lr.ph.i

.lr.ph.i:                                         ; preds = %7, %17
  %9 = phi ptr [ %19, %17 ], [ %8, %7 ]
  %.01218.i = phi ptr [ %18, %17 ], [ %2, %7 ]
  %10 = tail call i32 @strncmp(ptr noundef nonnull dereferenceable(5) @.str.1, ptr noundef nonnull dereferenceable(1) %9, i64 noundef 4) #15
  %11 = icmp eq i32 %10, 0
  br i1 %11, label %12, label %17

12:                                               ; preds = %.lr.ph.i
  %13 = getelementptr inbounds nuw i8, ptr %9, i64 4
  %14 = load i8, ptr %13, align 1, !tbaa !3
  %15 = icmp eq i8 %14, 61
  br i1 %15, label %list_env_get.exit.thread, label %17

list_env_get.exit.thread:                         ; preds = %12
  %16 = getelementptr inbounds nuw i8, ptr %9, i64 5
  br label %21

17:                                               ; preds = %12, %.lr.ph.i
  %18 = getelementptr inbounds nuw i8, ptr %.01218.i, i64 8
  %19 = load ptr, ptr %18, align 8, !tbaa !6
  %.not15.i = icmp eq ptr %19, null
  br i1 %.not15.i, label %list_env_get.exit, label %.lr.ph.i, !llvm.loop !9

list_env_get.exit:                                ; preds = %17, %4, %7
  %20 = tail call ptr @getenv(ptr noundef nonnull @.str.1) #14
  %.not24 = icmp eq ptr %20, null
  br i1 %.not24, label %path_env_load.exit, label %21

21:                                               ; preds = %list_env_get.exit.thread, %list_env_get.exit
  %.0.i29 = phi ptr [ %16, %list_env_get.exit.thread ], [ %20, %list_env_get.exit ]
  %22 = load i8, ptr %.0.i29, align 1, !tbaa !3
  %.not25.i = icmp eq i8 %22, 0
  br i1 %.not25.i, label %path_env_load.exit, label %.preheader.i

.preheader.i:                                     ; preds = %21, %32
  %23 = phi i8 [ %33, %32 ], [ %22, %21 ]
  %.026.i = phi ptr [ %spec.select.i, %32 ], [ %.0.i29, %21 ]
  br label %24

24:                                               ; preds = %26, %.preheader.i
  %25 = phi i8 [ %.pr.i, %26 ], [ %23, %.preheader.i ]
  %.018.i = phi ptr [ %27, %26 ], [ %.026.i, %.preheader.i ]
  switch i8 %25, label %26 [
    i8 0, label %.critedge.i
    i8 58, label %.critedge.i
  ]

26:                                               ; preds = %24
  %27 = getelementptr inbounds nuw i8, ptr %.018.i, i64 1
  %.pr.i = load i8, ptr %27, align 1, !tbaa !3
  br label %24, !llvm.loop !16

.critedge.i:                                      ; preds = %24, %24
  %.not23.i = icmp eq ptr %.018.i, %.026.i
  br i1 %.not23.i, label %32, label %28

28:                                               ; preds = %.critedge.i
  store i8 0, ptr %.018.i, align 1, !tbaa !3
  %29 = call i32 @pmix_argv_append(ptr noundef nonnull %6, ptr noundef nonnull %5, ptr noundef nonnull %.026.i) #14
  store i8 %25, ptr %.018.i, align 1, !tbaa !3
  %30 = icmp ne i8 %25, 0
  %31 = zext i1 %30 to i64
  br label %32

32:                                               ; preds = %28, %.critedge.i
  %.not24.i = phi i64 [ %31, %28 ], [ 1, %.critedge.i ]
  %.1.i = phi ptr [ %.018.i, %28 ], [ %.026.i, %.critedge.i ]
  %spec.select.i = getelementptr inbounds nuw i8, ptr %.1.i, i64 %.not24.i
  %33 = load i8, ptr %spec.select.i, align 1, !tbaa !3
  %.not.i26 = icmp eq i8 %33, 0
  br i1 %.not.i26, label %path_env_load.exit, label %.preheader.i, !llvm.loop !17

path_env_load.exit:                               ; preds = %32, %21, %list_env_get.exit
  %34 = icmp eq ptr %3, null
  br i1 %34, label %.thread, label %.preheader

.preheader:                                       ; preds = %path_env_load.exit
  %35 = load i32, ptr %6, align 4, !tbaa !12
  %36 = icmp sgt i32 %35, 0
  br i1 %36, label %sub_0.preheader, label %.critedge

sub_0.preheader:                                  ; preds = %.preheader
  %.pre = load ptr, ptr %5, align 8, !tbaa !14
  br label %sub_0.outer

sub_0.outer:                                      ; preds = %.thread41, %sub_0.preheader
  %.ph = phi i32 [ %.pre40, %.thread41 ], [ %35, %sub_0.preheader ]
  %.ph46 = phi ptr [ %46, %.thread41 ], [ %.pre, %sub_0.preheader ]
  %indvars.iv.ph = phi i64 [ %indvars.iv.next43, %.thread41 ], [ 0, %sub_0.preheader ]
  %.136.ph = phi i1 [ true, %.thread41 ], [ false, %sub_0.preheader ]
  %37 = sext i32 %.ph to i64
  br label %sub_0

sub_0:                                            ; preds = %sub_0.outer, %.tail.thread
  %indvars.iv = phi i64 [ %indvars.iv.next, %.tail.thread ], [ %indvars.iv.ph, %sub_0.outer ]
  %38 = getelementptr inbounds nuw ptr, ptr %.ph46, i64 %indvars.iv
  %39 = load ptr, ptr %38, align 8, !tbaa !6
  %40 = load i8, ptr %39, align 1
  %.not = icmp eq i8 %40, 46
  br i1 %.not, label %.tail, label %.tail.thread

.tail:                                            ; preds = %sub_0
  %41 = getelementptr inbounds nuw i8, ptr %39, i64 1
  %42 = load i8, ptr %41, align 1
  %43 = icmp eq i8 %42, 0
  br i1 %43, label %44, label %.tail.thread

44:                                               ; preds = %.tail
  call void @free(ptr noundef nonnull %39) #14
  %45 = call noalias ptr @strdup(ptr noundef nonnull %3) #14
  %46 = load ptr, ptr %5, align 8, !tbaa !14
  %47 = getelementptr inbounds nuw ptr, ptr %46, i64 %indvars.iv
  store ptr %45, ptr %47, align 8, !tbaa !6
  %48 = icmp eq ptr %45, null
  br i1 %48, label %.loopexit, label %.thread41

.tail.thread:                                     ; preds = %sub_0, %.tail
  %indvars.iv.next = add nuw nsw i64 %indvars.iv, 1
  %49 = icmp slt i64 %indvars.iv.next, %37
  br i1 %49, label %sub_0, label %._crit_edge, !llvm.loop !18

.thread41:                                        ; preds = %44
  %.pre40 = load i32, ptr %6, align 4, !tbaa !12
  %indvars.iv.next43 = add nuw nsw i64 %indvars.iv, 1
  %50 = sext i32 %.pre40 to i64
  %51 = icmp slt i64 %indvars.iv.next43, %50
  br i1 %51, label %sub_0.outer, label %.thread, !llvm.loop !18

._crit_edge:                                      ; preds = %.tail.thread
  br i1 %.136.ph, label %.thread, label %.critedge

.critedge:                                        ; preds = %.preheader, %._crit_edge
  %52 = call i32 @pmix_argv_append(ptr noundef nonnull %6, ptr noundef nonnull %5, ptr noundef nonnull %3) #14
  br label %.thread

.thread:                                          ; preds = %.thread41, %path_env_load.exit, %.critedge, %._crit_edge
  %53 = load ptr, ptr %5, align 8, !tbaa !14
  %54 = icmp eq ptr %53, null
  br i1 %54, label %.loopexit, label %55

55:                                               ; preds = %.thread
  %56 = call noalias ptr @pmix_path_find(ptr noundef %0, ptr noundef nonnull %53, i32 noundef %1, ptr noundef %2)
  %57 = load ptr, ptr %5, align 8, !tbaa !14
  call void @PMIx_Argv_free(ptr noundef %57) #14
  br label %.loopexit

.loopexit:                                        ; preds = %44, %.thread, %55
  %.019 = phi ptr [ %56, %55 ], [ null, %.thread ], [ null, %44 ]
  call void @llvm.lifetime.end.p0(i64 4, ptr nonnull %6) #14
  call void @llvm.lifetime.end.p0(i64 8, ptr nonnull %5) #14
  ret ptr %.019
}